target datalayout = "e-m:e-p270:32:32-p271:32:32-p272:64:64-i64:64-i128:128-f80:128-n8:16:32:64-S128"
target triple = "x86_64-pc-linux-gnu"

%"class.std::__cxx11::basic_string" = type { %"struct.std::__cxx11::basic_string<char>::_Alloc_hider", i64, %union.anon }
%"struct.std::__cxx11::basic_string<char>::_Alloc_hider" = type { ptr }
%union.anon = type { i64, [8 x i8] }
%"class.std::vector.3" = type { %"struct.std::_Vector_base.4" }
%"struct.std::_Vector_base.4" = type { %"struct.std::_Vector_base<std::__cxx11::basic_string<char>, std::allocator<std::__cxx11::basic_string<char>>>::_Vector_impl" }
%"struct.std::_Vector_base<std::__cxx11::basic_string<char>, std::allocator<std::__cxx11::basic_string<char>>>::_Vector_impl" = type { %"struct.std::_Vector_base<std::__cxx11::basic_string<char>, std::allocator<std::__cxx11::basic_string<char>>>::_Vector_impl_data" }
%"struct.std::_Vector_base<std::__cxx11::basic_string<char>, std::allocator<std::__cxx11::basic_string<char>>>::_Vector_impl_data" = type { ptr, ptr, ptr }
%"class.std::map" = type { %"class.std::_Rb_tree" }
%"class.std::_Rb_tree" = type { %"struct.std::_Rb_tree<std::__cxx11::basic_string<char>, std::pair<const std::__cxx11::basic_string<char>, std::__cxx11::basic_string<char>>, std::_Select1st<std::pair<const std::__cxx11::basic_string<char>, std::__cxx11::basic_string<char>>>, std::less<std::__cxx11::basic_string<char>>>::_Rb_tree_impl" }
%"struct.std::_Rb_tree<std::__cxx11::basic_string<char>, std::pair<const std::__cxx11::basic_string<char>, std::__cxx11::basic_string<char>>, std::_Select1st<std::pair<const std::__cxx11::basic_string<char>, std::__cxx11::basic_string<char>>>, std::less<std::__cxx11::basic_string<char>>>::_Rb_tree_impl" = type { [8 x i8], %"struct.std::_Rb_tree_header" }
%"struct.std::_Rb_tree_header" = type { %"struct.std::_Rb_tree_node_base", i64 }
%"struct.std::_Rb_tree_node_base" = type { i32, ptr, ptr, ptr }
%"struct.rocksdb::Options" = type { %"struct.rocksdb::DBOptions.base", %"struct.rocksdb::ColumnFamilyOptions" }
%"struct.rocksdb::DBOptions.base" = type <{ i8, i8, i8, i8, i8, i8, i8, i8, i8, [7 x i8], ptr, %"class.std::shared_ptr", %"class.std::shared_ptr.8", %"class.std::shared_ptr.11", i8, [3 x i8], i32, i32, [4 x i8], i64, %"class.std::shared_ptr.14", i8, [7 x i8], %"class.std::vector.17", %"class.std::__cxx11::basic_string", %"class.std::__cxx11::basic_string", i64, i32, i32, i32, i32, i64, i64, i64, i64, i64, i32, [4 x i8], i64, i64, i64, i8, i8, i8, i8, i8, i8, [2 x i8], i32, i32, i8, [7 x i8], i64, i8, [7 x i8], i64, %"class.std::shared_ptr.22", i64, i64, i8, [7 x i8], i64, i64, i8, [7 x i8], %"class.std::vector.25", i8, [7 x i8], i64, i8, i8, i8, i8, [4 x i8], i64, i64, i64, i8, i8, i8, i8, [4 x i8], %"class.std::shared_ptr.30", ptr, i8, i8, i8, i8, i8, i8, i8, i8, i8, i8, i8, i8, i8, i8, [2 x i8], i64, %"class.std::shared_ptr.33", i8, [3 x i8], i32, i64, i8, [7 x i8], %"class.std::__cxx11::basic_string", %"class.rocksdb::SmallEnumSet", %"class.std::shared_ptr.36", i8, i8, [6 x i8], %"class.std::__cxx11::basic_string", i64, i64, i64, i8, i8 }>
%"class.std::shared_ptr" = type { %"class.std::__shared_ptr" }
%"class.std::__shared_ptr" = type { ptr, %"class.std::__shared_count" }
%"class.std::__shared_count" = type { ptr }
%"class.std::shared_ptr.8" = type { %"class.std::__shared_ptr.9" }
%"class.std::__shared_ptr.9" = type { ptr, %"class.std::__shared_count" }
%"class.std::shared_ptr.11" = type { %"class.std::__shared_ptr.12" }
%"class.std::__shared_ptr.12" = type { ptr, %"class.std::__shared_count" }
%"class.std::shared_ptr.14" = type { %"class.std::__shared_ptr.15" }
%"class.std::__shared_ptr.15" = type { ptr, %"class.std::__shared_count" }
%"class.std::vector.17" = type { %"struct.std::_Vector_base.18" }
%"struct.std::_Vector_base.18" = type { %"struct.std::_Vector_base<rocksdb::DbPath, std::allocator<rocksdb::DbPath>>::_Vector_impl" }
%"struct.std::_Vector_base<rocksdb::DbPath, std::allocator<rocksdb::DbPath>>::_Vector_impl" = type { %"struct.std::_Vector_base<rocksdb::DbPath, std::allocator<rocksdb::DbPath>>::_Vector_impl_data" }
%"struct.std::_Vector_base<rocksdb::DbPath, std::allocator<rocksdb::DbPath>>::_Vector_impl_data" = type { ptr, ptr, ptr }
%"class.std::shared_ptr.22" = type { %"class.std::__shared_ptr.23" }
%"class.std::__shared_ptr.23" = type { ptr, %"class.std::__shared_count" }
%"class.std::vector.25" = type { %"struct.std::_Vector_base.26" }
%"struct.std::_Vector_base.26" = type { %"struct.std::_Vector_base<std::shared_ptr<rocksdb::EventListener>, std::allocator<std::shared_ptr<rocksdb::EventListener>>>::_Vector_impl" }
%"struct.std::_Vector_base<std::shared_ptr<rocksdb::EventListener>, std::allocator<std::shared_ptr<rocksdb::EventListener>>>::_Vector_impl" = type { %"struct.std::_Vector_base<std::shared_ptr<rocksdb::EventListener>, std::allocator<std::shared_ptr<rocksdb::EventListener>>>::_Vector_impl_data" }
%"struct.std::_Vector_base<std::shared_ptr<rocksdb::EventListener>, std::allocator<std::shared_ptr<rocksdb::EventListener>>>::_Vector_impl_data" = type { ptr, ptr, ptr }
%"class.std::shared_ptr.30" = type { %"class.std::__shared_ptr.31" }
%"class.std::__shared_ptr.31" = type { ptr, %"class.std::__shared_count" }
%"class.std::shared_ptr.33" = type { %"class.std::__shared_ptr.34" }
%"class.std::__shared_ptr.34" = type { ptr, %"class.std::__shared_count" }
%"class.rocksdb::SmallEnumSet" = type { i64 }
%"class.std::shared_ptr.36" = type { %"class.std::__shared_ptr.37" }
%"class.std::__shared_ptr.37" = type { ptr, %"class.std::__shared_count" }
%"struct.rocksdb::ColumnFamilyOptions" = type { %"struct.rocksdb::AdvancedColumnFamilyOptions.base", ptr, %"class.std::shared_ptr.65", ptr, %"class.std::shared_ptr.68", i64, i8, i8, [6 x i8], %"struct.rocksdb::CompressionOptions", %"struct.rocksdb::CompressionOptions", i32, %"class.std::shared_ptr.39", i64, i64, i8, %"class.std::shared_ptr.71", %"class.std::vector.17", %"class.std::shared_ptr.74", %"class.std::shared_ptr.77", i32, i32 }
%"struct.rocksdb::AdvancedColumnFamilyOptions.base" = type <{ i32, i32, i32, [4 x i8], i64, i8, [7 x i8], i64, double, ptr, double, i8, [7 x i8], i64, %"class.std::shared_ptr.39", i32, [4 x i8], i64, %"class.std::vector.42", i32, i32, i32, [4 x i8], i64, i32, i8, [3 x i8], double, %"class.std::vector.47", i64, i64, i64, i8, i8, [2 x i8], %"class.rocksdb::CompactionOptionsUniversal", [4 x i8], %"struct.rocksdb::CompactionOptionsFIFO", i64, %"class.std::shared_ptr.57", %"class.std::vector.60", i64, i8, i8, i8, i8, i8, [3 x i8], i64, i64, i64, i8, i8, i8, [5 x i8], i64, i64, i8, [7 x i8], i64, i64, i8, i8, [6 x i8], double, double, i64, i32, [4 x i8], %"class.std::shared_ptr.30", i8, [3 x i8], i32, i8, i8, [2 x i8], i32, i8 }>
%"class.std::vector.42" = type { %"struct.std::_Vector_base.43" }
%"struct.std::_Vector_base.43" = type { %"struct.std::_Vector_base<rocksdb::CompressionType, std::allocator<rocksdb::CompressionType>>::_Vector_impl" }
%"struct.std::_Vector_base<rocksdb::CompressionType, std::allocator<rocksdb::CompressionType>>::_Vector_impl" = type { %"struct.std::_Vector_base<rocksdb::CompressionType, std::allocator<rocksdb::CompressionType>>::_Vector_impl_data" }
%"struct.std::_Vector_base<rocksdb::CompressionType, std::allocator<rocksdb::CompressionType>>::_Vector_impl_data" = type { ptr, ptr, ptr }
%"class.std::vector.47" = type { %"struct.std::_Vector_base.48" }
%"struct.std::_Vector_base.48" = type { %"struct.std::_Vector_base<int, std::allocator<int>>::_Vector_impl" }
%"struct.std::_Vector_base<int, std::allocator<int>>::_Vector_impl" = type { %"struct.std::_Vector_base<int, std::allocator<int>>::_Vector_impl_data" }
%"struct.std::_Vector_base<int, std::allocator<int>>::_Vector_impl_data" = type { ptr, ptr, ptr }
%"class.rocksdb::CompactionOptionsUniversal" = type <{ i32, i32, i32, i32, i32, i32, i32, i8, i8, [2 x i8] }>
%"struct.rocksdb::CompactionOptionsFIFO" = type { i64, i8, i64, %"class.std::vector.52" }
%"class.std::vector.52" = type { %"struct.std::_Vector_base.53" }
%"struct.std::_Vector_base.53" = type { %"struct.std::_Vector_base<rocksdb::FileTemperatureAge, std::allocator<rocksdb::FileTemperatureAge>>::_Vector_impl" }
%"struct.std::_Vector_base<rocksdb::FileTemperatureAge, std::allocator<rocksdb::FileTemperatureAge>>::_Vector_impl" = type { %"struct.std::_Vector_base<rocksdb::FileTemperatureAge, std::allocator<rocksdb::FileTemperatureAge>>::_Vector_impl_data" }
%"struct.std::_Vector_base<rocksdb::FileTemperatureAge, std::allocator<rocksdb::FileTemperatureAge>>::_Vector_impl_data" = type { ptr, ptr, ptr }
%"class.std::shared_ptr.57" = type { %"class.std::__shared_ptr.58" }
%"class.std::__shared_ptr.58" = type { ptr, %"class.std::__shared_count" }
%"class.std::vector.60" = type { %"struct.std::_Vector_base.61" }
%"struct.std::_Vector_base.61" = type { %"struct.std::_Vector_base<std::shared_ptr<rocksdb::TablePropertiesCollectorFactory>, std::allocator<std::shared_ptr<rocksdb::TablePropertiesCollectorFactory>>>::_Vector_impl" }
%"struct.std::_Vector_base<std::shared_ptr<rocksdb::TablePropertiesCollectorFactory>, std::allocator<std::shared_ptr<rocksdb::TablePropertiesCollectorFactory>>>::_Vector_impl" = type { %"struct.std::_Vector_base<std::shared_ptr<rocksdb::TablePropertiesCollectorFactory>, std::allocator<std::shared_ptr<rocksdb::TablePropertiesCollectorFactory>>>::_Vector_impl_data" }
%"struct.std::_Vector_base<std::shared_ptr<rocksdb::TablePropertiesCollectorFactory>, std::allocator<std::shared_ptr<rocksdb::TablePropertiesCollectorFactory>>>::_Vector_impl_data" = type { ptr, ptr, ptr }
%"class.std::shared_ptr.65" = type { %"class.std::__shared_ptr.66" }
%"class.std::__shared_ptr.66" = type { ptr, %"class.std::__shared_count" }
%"class.std::shared_ptr.68" = type { %"class.std::__shared_ptr.69" }
%"class.std::__shared_ptr.69" = type { ptr, %"class.std::__shared_count" }
%"struct.rocksdb::CompressionOptions" = type <{ i32, i32, i32, i32, i32, i32, i8, [7 x i8], i64, i8, [3 x i8], i32, i8, [7 x i8] }>
%"class.std::shared_ptr.39" = type { %"class.std::__shared_ptr.40" }
%"class.std::__shared_ptr.40" = type { ptr, %"class.std::__shared_count" }
%"class.std::shared_ptr.71" = type { %"class.std::__shared_ptr.72" }
%"class.std::__shared_ptr.72" = type { ptr, %"class.std::__shared_count" }
%"class.std::shared_ptr.74" = type { %"class.std::__shared_ptr.75" }
%"class.std::__shared_ptr.75" = type { ptr, %"class.std::__shared_count" }
%"class.std::shared_ptr.77" = type { %"class.std::__shared_ptr.78" }
%"class.std::__shared_ptr.78" = type { ptr, %"class.std::__shared_count" }
%"class.rocksdb::LDBCommand" = type { ptr, %"class.rocksdb::LDBCommandExecuteResult", %"class.std::__cxx11::basic_string", %"class.std::__cxx11::basic_string", %"class.std::__cxx11::basic_string", %"class.std::__cxx11::basic_string", %"class.std::__cxx11::basic_string", %"class.std::__cxx11::basic_string", ptr, ptr, %"class.std::map.87", %"class.std::map.92", i8, i8, i8, i8, i8, i8, i8, i8, i8, i8, %"class.std::__cxx11::basic_string", %"class.std::map", %"class.std::vector.3", %"class.std::vector.3", %"class.std::shared_ptr.98", %"struct.rocksdb::Options", %"class.std::vector.101", %"struct.rocksdb::ConfigOptions", %"struct.rocksdb::LDBOptions" }
%"class.rocksdb::LDBCommandExecuteResult" = type { i32, %"class.std::__cxx11::basic_string" }
%"class.std::map.87" = type { %"class.std::_Rb_tree.88" }
%"class.std::_Rb_tree.88" = type { %"struct.std::_Rb_tree<std::__cxx11::basic_string<char>, std::pair<const std::__cxx11::basic_string<char>, rocksdb::ColumnFamilyHandle *>, std::_Select1st<std::pair<const std::__cxx11::basic_string<char>, rocksdb::ColumnFamilyHandle *>>, std::less<std::__cxx11::basic_string<char>>>::_Rb_tree_impl" }
%"struct.std::_Rb_tree<std::__cxx11::basic_string<char>, std::pair<const std::__cxx11::basic_string<char>, rocksdb::ColumnFamilyHandle *>, std::_Select1st<std::pair<const std::__cxx11::basic_string<char>, rocksdb::ColumnFamilyHandle *>>, std::less<std::__cxx11::basic_string<char>>>::_Rb_tree_impl" = type { [8 x i8], %"struct.std::_Rb_tree_header" }
%"class.std::map.92" = type { %"class.std::_Rb_tree.93" }
%"class.std::_Rb_tree.93" = type { %"struct.std::_Rb_tree<unsigned int, std::pair<const unsigned int, const rocksdb::Comparator *>, std::_Select1st<std::pair<const unsigned int, const rocksdb::Comparator *>>, std::less<unsigned int>>::_Rb_tree_impl" }
%"struct.std::_Rb_tree<unsigned int, std::pair<const unsigned int, const rocksdb::Comparator *>, std::_Select1st<std::pair<const unsigned int, const rocksdb::Comparator *>>, std::less<unsigned int>>::_Rb_tree_impl" = type { [8 x i8], %"struct.std::_Rb_tree_header" }
%"class.std::shared_ptr.98" = type { %"class.std::__shared_ptr.99" }
%"class.std::__shared_ptr.99" = type { ptr, %"class.std::__shared_count" }
%"class.std::vector.101" = type { %"struct.std::_Vector_base.102" }
%"struct.std::_Vector_base.102" = type { %"struct.std::_Vector_base<rocksdb::ColumnFamilyDescriptor, std::allocator<rocksdb::ColumnFamilyDescriptor>>::_Vector_impl" }
%"struct.std::_Vector_base<rocksdb::ColumnFamilyDescriptor, std::allocator<rocksdb::ColumnFamilyDescriptor>>::_Vector_impl" = type { %"struct.std::_Vector_base<rocksdb::ColumnFamilyDescriptor, std::allocator<rocksdb::ColumnFamilyDescriptor>>::_Vector_impl_data" }
%"struct.std::_Vector_base<rocksdb::ColumnFamilyDescriptor, std::allocator<rocksdb::ColumnFamilyDescriptor>>::_Vector_impl_data" = type { ptr, ptr, ptr }
%"struct.rocksdb::ConfigOptions" = type { i8, i8, i8, i8, i8, %"class.std::__cxx11::basic_string", i32, i8, i64, ptr, %"class.std::shared_ptr.106" }
%"class.std::shared_ptr.106" = type { %"class.std::__shared_ptr.107" }
%"class.std::__shared_ptr.107" = type { ptr, %"class.std::__shared_count" }
%"struct.rocksdb::LDBOptions" = type { %"class.std::shared_ptr.80", %"class.std::__cxx11::basic_string" }
%"class.std::shared_ptr.80" = type { %"class.std::__shared_ptr.81" }
%"class.std::__shared_ptr.81" = type { ptr, %"class.std::__shared_count" }
%"class.rocksdb::WALDumperCommand" = type <{ %"class.rocksdb::LDBCommand", i8, [7 x i8], %"class.std::__cxx11::basic_string", i8, i8, i8, i8, [4 x i8] }>

; Function Attrs: inlinehint mustprogress nounwind uwtable
define linkonce_odr void @_ZN7rocksdb7OptionsD2Ev(ptr noundef nonnull align 8 dereferenceable(1544) %0) unnamed_addr #4 comdat align 2 {
  %2 = alloca ptr, align 8
  store ptr %0, ptr %2, align 8, !tbaa !69
  %3 = load ptr, ptr %2, align 8
  %4 = getelementptr inbounds i8, ptr %3, i64 712
  call void @_ZN7rocksdb19ColumnFamilyOptionsD2Ev(ptr noundef nonnull align 8 dereferenceable(832) %4) #3
  call void @_ZN7rocksdb9DBOptionsD2Ev(ptr noundef nonnull align 8 dereferenceable(706) %3) #3
  ret void
}

; Function Attrs: inlinehint mustprogress uwtable
define linkonce_odr void @_ZN7rocksdb7OptionsC2ERKS0_(ptr noundef nonnull align 8 dereferenceable(1544) %0, ptr noundef nonnull align 8 dereferenceable(1544) %1) unnamed_addr #6 comdat align 2 personality ptr @__gxx_personality_v0 {
  %3 = alloca ptr, align 8
  %4 = alloca ptr, align 8
  %5 = alloca ptr, align 8
  %6 = alloca i32, align 4
  store ptr %0, ptr %3, align 8, !tbaa !69
  store ptr %1, ptr %4, align 8, !tbaa !69
  %7 = load ptr, ptr %3, align 8
  %8 = load ptr, ptr %4, align 8, !tbaa !69
  call void @_ZN7rocksdb9DBOptionsC2ERKS0_(ptr noundef nonnull align 8 dereferenceable(706) %7, ptr noundef nonnull align 8 dereferenceable(706) %8)
  %9 = getelementptr inbounds i8, ptr %7, i64 712
  %10 = load ptr, ptr %4, align 8, !tbaa !69
  %11 = getelementptr inbounds i8, ptr %10, i64 712
  invoke void @_ZN7rocksdb19ColumnFamilyOptionsC2ERKS0_(ptr noundef nonnull align 8 dereferenceable(832) %9, ptr noundef nonnull align 8 dereferenceable(832) %11)
          to label %12 unwind label %13

12:                                               ; preds = %2
  ret void

13:                                               ; preds = %2
  %14 = landingpad { ptr, i32 }
          cleanup
  %15 = extractvalue { ptr, i32 } %14, 0
  store ptr %15, ptr %5, align 8
  %16 = extractvalue { ptr, i32 } %14, 1
  store i32 %16, ptr %6, align 4
  call void @_ZN7rocksdb9DBOptionsD2Ev(ptr noundef nonnull align 8 dereferenceable(706) %7) #3
  br label %17

17:                                               ; preds = %13
  %18 = load ptr, ptr %5, align 8
  %19 = load i32, ptr %6, align 4
  %20 = insertvalue { ptr, i32 } poison, ptr %18, 0
  %21 = insertvalue { ptr, i32 } %20, i32 %19, 1
  resume { ptr, i32 } %21
}

; Function Attrs: mustprogress uwtable
define void @_ZN7rocksdb16WALDumperCommand9DoCommandEv(ptr noundef nonnull align 8 dereferenceable(2252) %0) unnamed_addr #7 align 2 personality ptr @__gxx_personality_v0 {
  %2 = alloca ptr, align 8
  %3 = alloca %"struct.rocksdb::Options", align 8
  %4 = alloca ptr, align 8
  %5 = alloca i32, align 4
  store ptr %0, ptr %2, align 8, !tbaa !913
  %6 = load ptr, ptr %2, align 8
  %7 = load ptr, ptr %6, align 8, !tbaa !26
  %8 = getelementptr inbounds ptr, ptr %7, i64 0
  %9 = load ptr, ptr %8, align 8
  call void %9(ptr noundef nonnull align 8 dereferenceable(2208) %6)
  %10 = getelementptr inbounds nuw %"class.rocksdb::LDBCommand", ptr %6, i32 0, i32 27
  call void @_ZN7rocksdb7OptionsC2ERKS0_(ptr noundef nonnull align 8 dereferenceable(1544) %3, ptr noundef nonnull align 8 dereferenceable(1544) %10)
  %11 = getelementptr inbounds nuw %"class.rocksdb::WALDumperCommand", ptr %6, i32 0, i32 3
  %12 = getelementptr inbounds nuw %"class.rocksdb::WALDumperCommand", ptr %6, i32 0, i32 1
  %13 = load i8, ptr %12, align 8, !tbaa !915, !range !254, !noundef !255
  %14 = trunc i8 %13 to i1
  %15 = getelementptr inbounds nuw %"class.rocksdb::WALDumperCommand", ptr %6, i32 0, i32 4
  %16 = load i8, ptr %15, align 8, !tbaa !917, !range !254, !noundef !255
  %17 = trunc i8 %16 to i1
  %18 = getelementptr inbounds nuw %"class.rocksdb::WALDumperCommand", ptr %6, i32 0, i32 5
  %19 = load i8, ptr %18, align 1, !tbaa !918, !range !254, !noundef !255
  %20 = trunc i8 %19 to i1
  %21 = getelementptr inbounds nuw %"class.rocksdb::WALDumperCommand", ptr %6, i32 0, i32 6
  %22 = load i8, ptr %21, align 2, !tbaa !919, !range !254, !noundef !255
  %23 = trunc i8 %22 to i1
  %24 = getelementptr inbounds nuw %"class.rocksdb::LDBCommand", ptr %6, i32 0, i32 11
  %25 = getelementptr inbounds nuw %"class.rocksdb::LDBCommand", ptr %6, i32 0, i32 1
  invoke void @_ZN7rocksdb12_GLOBAL__N_112DumpWalFilesENS_7OptionsERKNSt7__cxx1112basic_stringIcSt11char_traitsIcESaIcEEEbbbbRKSt3mapIjPKNS_10ComparatorESt4lessIjESaISt4pairIKjSD_EEEPNS_23LDBCommandExecuteResultE(ptr noundef %3, ptr noundef nonnull align 8 dereferenceable(32) %11, i1 noundef zeroext %14, i1 noundef zeroext %17, i1 noundef zeroext %20, i1 noundef zeroext %23, ptr noundef nonnull align 8 dereferenceable(48) %24, ptr noundef %25)
          to label %26 unwind label %27

26:                                               ; preds = %1
  call void @_ZN7rocksdb7OptionsD2Ev(ptr noundef nonnull align 8 dereferenceable(1544) %3) #3
  ret void

27:                                               ; preds = %1
  %28 = landingpad { ptr, i32 }
          cleanup
  %29 = extractvalue { ptr, i32 } %28, 0
  store ptr %29, ptr %4, align 8
  %30 = extractvalue { ptr, i32 } %28, 1
  store i32 %30, ptr %5, align 4
  call void @_ZN7rocksdb7OptionsD2Ev(ptr noundef nonnull align 8 dereferenceable(1544) %3) #3
  br label %31

31:                                               ; preds = %27
  %32 = load ptr, ptr %4, align 8
  %33 = load i32, ptr %5, align 4
  %34 = insertvalue { ptr, i32 } poison, ptr %32, 0
  %35 = insertvalue { ptr, i32 } %34, i32 %33, 1
  resume { ptr, i32 } %35
}