; Function Attrs: mustprogress uwtable
define void @_ZN7rocksdb16WALDumperCommand9DoCommandEv(ptr noundef nonnull align 8 dereferenceable(2252) %0) unnamed_addr #5 align 2 personality ptr @__gxx_personality_v0 {
  %2 = alloca %"struct.rocksdb::Options", align 8
  %3 = load ptr, ptr %0, align 8, !tbaa !45
  %4 = load ptr, ptr %3, align 8
  tail call void %4(ptr noundef nonnull align 8 dereferenceable(2208) %0)
  %5 = getelementptr inbounds nuw i8, ptr %0, i64 512
  call void @_ZN7rocksdb9DBOptionsC2ERKS0_(ptr noundef nonnull align 8 dereferenceable(1544) %2, ptr noundef nonnull align 8 dereferenceable(1544) %5)
  %6 = getelementptr inbounds nuw i8, ptr %2, i64 712
  %7 = getelementptr inbounds nuw i8, ptr %0, i64 1224
  invoke void @_ZN7rocksdb19ColumnFamilyOptionsC2ERKS0_(ptr noundef nonnull align 8 dereferenceable(832) %6, ptr noundef nonnull align 8 dereferenceable(832) %7)
          to label %_ZN7rocksdb7OptionsC2ERKS0_.exit unwind label %8

common.resume:                                    ; preds = %26, %8
  %common.resume.op = phi { ptr, i32 } [ %9, %8 ], [ %27, %26 ]
  call void @_ZN7rocksdb9DBOptionsD2Ev(ptr noundef nonnull align 8 dereferenceable(1544) %2) #35
  resume { ptr, i32 } %common.resume.op

8:                                                ; preds = %1
  %9 = landingpad { ptr, i32 }
          cleanup
  br label %common.resume

_ZN7rocksdb7OptionsC2ERKS0_.exit:                 ; preds = %1
  %10 = getelementptr inbounds nuw i8, ptr %0, i64 2216
  %11 = getelementptr inbounds nuw i8, ptr %0, i64 2208
  %12 = load i8, ptr %11, align 8, !tbaa !1460, !range !303, !noundef !304
  %13 = trunc nuw i8 %12 to i1
  %14 = getelementptr inbounds nuw i8, ptr %0, i64 2248
  %15 = load i8, ptr %14, align 8, !tbaa !1462, !range !303, !noundef !304
  %16 = trunc nuw i8 %15 to i1
  %17 = getelementptr inbounds nuw i8, ptr %0, i64 2249
  %18 = load i8, ptr %17, align 1, !tbaa !1463, !range !303, !noundef !304
  %19 = trunc nuw i8 %18 to i1
  %20 = getelementptr inbounds nuw i8, ptr %0, i64 2250
  %21 = load i8, ptr %20, align 2, !tbaa !1464, !range !303, !noundef !304
  %22 = trunc nuw i8 %21 to i1
  %23 = getelementptr inbounds nuw i8, ptr %0, i64 304
  %24 = getelementptr inbounds nuw i8, ptr %0, i64 8
  invoke fastcc void @_ZN7rocksdb12_GLOBAL__N_112DumpWalFilesENS_7OptionsERKNSt7__cxx1112basic_stringIcSt11char_traitsIcESaIcEEEbbbbRKSt3mapIjPKNS_10ComparatorESt4lessIjESaISt4pairIKjSD_EEEPNS_23LDBCommandExecuteResultE(ptr noundef %2, ptr noundef nonnull align 8 dereferenceable(32) %10, i1 noundef zeroext %13, i1 noundef zeroext %16, i1 noundef zeroext %19, i1 noundef zeroext %22, ptr noundef nonnull align 8 dereferenceable(48) %23, ptr noundef %24)
          to label %25 unwind label %26

25:                                               ; preds = %_ZN7rocksdb7OptionsC2ERKS0_.exit
  call void @_ZN7rocksdb19ColumnFamilyOptionsD2Ev(ptr noundef nonnull align 8 dereferenceable(832) %6) #35
  call void @_ZN7rocksdb9DBOptionsD2Ev(ptr noundef nonnull align 8 dereferenceable(1544) %2) #35
  ret void

26:                                               ; preds = %_ZN7rocksdb7OptionsC2ERKS0_.exit
  %27 = landingpad { ptr, i32 }
          cleanup
  call void @_ZN7rocksdb19ColumnFamilyOptionsD2Ev(ptr noundef nonnull align 8 dereferenceable(832) %6) #35
  br label %common.resume
}